target datalayout = "e-m:e-p270:32:32-p271:32:32-p272:64:64-i64:64-i128:128-f80:128-n8:16:32:64-S128"
target triple = "x86_64-pc-linux-gnu"

%struct.ma_bpf_config = type { i32, i32, i32, double, i32 }

; Function Attrs: alwaysinline nounwind uwtable
define internal void @ma_zero_memory_default(ptr noundef %0, i64 noundef %1) #7 {
  %3 = alloca ptr, align 8
  %4 = alloca i64, align 8
  store ptr %0, ptr %3, align 8
  store i64 %1, ptr %4, align 8
  %5 = load ptr, ptr %3, align 8
  %6 = icmp eq ptr %5, null
  br i1 %6, label %7, label %8

7:                                                ; preds = %2
  br label %14

8:                                                ; preds = %2
  %9 = load i64, ptr %4, align 8
  %10 = icmp ugt i64 %9, 0
  br i1 %10, label %11, label %14

11:                                               ; preds = %8
  %12 = load ptr, ptr %3, align 8
  %13 = load i64, ptr %4, align 8
  call void @llvm.memset.p0.i64(ptr align 1 %12, i8 0, i64 %13, i1 false)
  br label %14

14:                                               ; preds = %7, %11, %8
  ret void
}

; Function Attrs: nounwind uwtable
define hidden void @ma_bpf_config_init(ptr dead_on_unwind noalias writable sret(%struct.ma_bpf_config) align 8 %0, i32 noundef %1, i32 noundef %2, i32 noundef %3, double noundef %4, i32 noundef %5) #0 {
  %7 = alloca i32, align 4
  %8 = alloca i32, align 4
  %9 = alloca i32, align 4
  %10 = alloca double, align 8
  %11 = alloca i32, align 4
  store i32 %1, ptr %7, align 4
  store i32 %2, ptr %8, align 4
  store i32 %3, ptr %9, align 4
  store double %4, ptr %10, align 8
  store i32 %5, ptr %11, align 4
  call void @ma_zero_memory_default(ptr noundef %0, i64 noundef 32)
  %12 = load i32, ptr %7, align 4
  %13 = getelementptr inbounds nuw %struct.ma_bpf_config, ptr %0, i32 0, i32 0
  store i32 %12, ptr %13, align 8
  %14 = load i32, ptr %8, align 4
  %15 = getelementptr inbounds nuw %struct.ma_bpf_config, ptr %0, i32 0, i32 1
  store i32 %14, ptr %15, align 4
  %16 = load i32, ptr %9, align 4
  %17 = getelementptr inbounds nuw %struct.ma_bpf_config, ptr %0, i32 0, i32 2
  store i32 %16, ptr %17, align 8
  %18 = load double, ptr %10, align 8
  %19 = getelementptr inbounds nuw %struct.ma_bpf_config, ptr %0, i32 0, i32 3
  store double %18, ptr %19, align 8
  %20 = load i32, ptr %11, align 4
  %21 = icmp ult i32 %20, 8
  br i1 %21, label %22, label %24

22:                                               ; preds = %6
  %23 = load i32, ptr %11, align 4
  br label %25

24:                                               ; preds = %6
  br label %25

25:                                               ; preds = %24, %22
  %26 = phi i32 [ %23, %22 ], [ 8, %24 ]
  %27 = getelementptr inbounds nuw %struct.ma_bpf_config, ptr %0, i32 0, i32 4
  store i32 %26, ptr %27, align 8
  ret void
}