; Function Attrs: mustprogress nofree norecurse nosync nounwind willreturn memory(argmem: write) uwtable
define hidden void @ma_bpf_config_init(ptr dead_on_unwind noalias writable writeonly sret(%struct.ma_bpf_config) align 8 captures(none) %0, i32 noundef %1, i32 noundef %2, i32 noundef %3, double noundef %4, i32 noundef %5) local_unnamed_addr #0 {
  %.not = icmp eq ptr %0, null
  br i1 %.not, label %ma_zero_memory_default.exit, label %7

7:                                                ; preds = %6
  %8 = getelementptr inbounds nuw i8, ptr %0, i64 8
  tail call void @llvm.memset.p0.i64(ptr noundef nonnull align 8 dereferenceable(32) %8, i8 0, i64 24, i1 false)
  br label %ma_zero_memory_default.exit

ma_zero_memory_default.exit:                      ; preds = %6, %7
  store i32 %1, ptr %0, align 8
  %9 = getelementptr inbounds nuw i8, ptr %0, i64 4
  store i32 %2, ptr %9, align 4
  %10 = getelementptr inbounds nuw i8, ptr %0, i64 8
  store i32 %3, ptr %10, align 8
  %11 = getelementptr inbounds nuw i8, ptr %0, i64 16
  store double %4, ptr %11, align 8
  %12 = tail call i32 @llvm.umin.i32(i32 %5, i32 8)
  %13 = getelementptr inbounds nuw i8, ptr %0, i64 24
  store i32 %12, ptr %13, align 8
  ret void
}